target datalayout = "e-m:e-p270:32:32-p271:32:32-p272:64:64-i64:64-i128:128-f80:128-n8:16:32:64-S128"
target triple = "x86_64-pc-linux-gnu"

%class.symbol = type { ptr }
%"class.datalog::tr_infrastructure<datalog::relation_traits>::plugin_object" = type { ptr, i32, %class.symbol, ptr }
%"class.datalog::table_relation" = type { %"class.datalog::relation_base.base", %"class.datalog::scoped_rel" }
%"class.datalog::relation_base.base" = type { %"class.datalog::tr_infrastructure<datalog::relation_traits>::base_ancestor.base" }
%"class.datalog::tr_infrastructure<datalog::relation_traits>::base_ancestor.base" = type <{ ptr, ptr, %"class.datalog::relation_signature", i32 }>
%"class.datalog::relation_signature" = type { %"class.datalog::tr_infrastructure<datalog::relation_traits>::signature_base" }
%"class.datalog::tr_infrastructure<datalog::relation_traits>::signature_base" = type { %class.ptr_vector.23 }
%class.ptr_vector.23 = type { %class.vector.24 }
%class.vector.24 = type { ptr }
%"class.datalog::scoped_rel" = type { ptr }
%"class.datalog::tr_infrastructure<datalog::relation_traits>::base_ancestor" = type <{ ptr, ptr, %"class.datalog::relation_signature", i32, [4 x i8] }>
%"class.datalog::tr_infrastructure<datalog::relation_traits>::base_fn" = type { ptr }
%"class.datalog::table_relation_plugin::tr_intersection_filter_fn" = type { %"class.datalog::tr_infrastructure<datalog::relation_traits>::intersection_filter_fn", %class.scoped_ptr.30 }
%"class.datalog::tr_infrastructure<datalog::relation_traits>::intersection_filter_fn" = type { %"class.datalog::tr_infrastructure<datalog::relation_traits>::base_fn" }
%class.scoped_ptr.30 = type { ptr }
%"class.datalog::relation_plugin" = type <{ %"class.datalog::tr_infrastructure<datalog::relation_traits>::plugin_object", i32, [4 x i8] }>

; Function Attrs: mustprogress nounwind uwtable
define linkonce_odr hidden void @_ZN7datalog17tr_infrastructureINS_15relation_traitsEE7base_fnC2Ev(ptr noundef nonnull align 8 dereferenceable(8) %0) unnamed_addr #7 comdat align 2 {
  %2 = alloca ptr, align 8
  store ptr %0, ptr %2, align 8, !tbaa !213
  %3 = load ptr, ptr %2, align 8
  store ptr getelementptr inbounds inrange(-16, 16) ({ [4 x ptr] }, ptr @_ZTVN7datalog17tr_infrastructureINS_15relation_traitsEE7base_fnE, i32 0, i32 0, i32 2), ptr %3, align 8, !tbaa !34
  ret void
}

; Function Attrs: mustprogress nounwind uwtable
define linkonce_odr hidden void @_ZN7datalog17tr_infrastructureINS_15relation_traitsEE7base_fnD2Ev(ptr noundef nonnull align 8 dereferenceable(8) %0) unnamed_addr #7 comdat align 2 {
  %2 = alloca ptr, align 8
  store ptr %0, ptr %2, align 8, !tbaa !213
  ret void
}

; Function Attrs: mustprogress nounwind uwtable
define linkonce_odr hidden void @_ZN10scoped_ptrIN7datalog17tr_infrastructureINS0_12table_traitsEE22intersection_filter_fnEEC2EPS4_(ptr noundef nonnull align 8 dereferenceable(8) %0, ptr noundef %1) unnamed_addr #7 comdat align 2 {
  %3 = alloca ptr, align 8
  %4 = alloca ptr, align 8
  store ptr %0, ptr %3, align 8, !tbaa !265
  store ptr %1, ptr %4, align 8, !tbaa !94
  %5 = load ptr, ptr %3, align 8
  %6 = getelementptr inbounds nuw %class.scoped_ptr.30, ptr %5, i32 0, i32 0
  %7 = load ptr, ptr %4, align 8, !tbaa !94
  store ptr %7, ptr %6, align 8, !tbaa !267
  ret void
}

; Function Attrs: inlinehint mustprogress nounwind uwtable
define linkonce_odr hidden void @_ZN7datalog17tr_infrastructureINS_15relation_traitsEE22intersection_filter_fnC2Ev(ptr noundef nonnull align 8 dereferenceable(8) %0) unnamed_addr #8 comdat align 2 {
  %2 = alloca ptr, align 8
  store ptr %0, ptr %2, align 8, !tbaa !263
  %3 = load ptr, ptr %2, align 8
  call void @_ZN7datalog17tr_infrastructureINS_15relation_traitsEE7base_fnC2Ev(ptr noundef nonnull align 8 dereferenceable(8) %3) #3
  store ptr getelementptr inbounds inrange(-16, 24) ({ [5 x ptr] }, ptr @_ZTVN7datalog17tr_infrastructureINS_15relation_traitsEE22intersection_filter_fnE, i32 0, i32 0, i32 2), ptr %3, align 8, !tbaa !34
  ret void
}

; Function Attrs: mustprogress nounwind uwtable
define linkonce_odr hidden noundef nonnull align 8 dereferenceable(36) ptr @_ZNK7datalog10scoped_relINS_10table_baseEEdeEv(ptr noundef nonnull align 8 dereferenceable(8) %0) #7 comdat align 2 {
  %2 = alloca ptr, align 8
  store ptr %0, ptr %2, align 8, !tbaa !184
  %3 = load ptr, ptr %2, align 8
  %4 = getelementptr inbounds nuw %"class.datalog::scoped_rel", ptr %3, i32 0, i32 0
  %5 = load ptr, ptr %4, align 8, !tbaa !186
  ret ptr %5
}

; Function Attrs: mustprogress nounwind uwtable
define linkonce_odr hidden noundef zeroext i1 @_ZNK7datalog15relation_plugin10from_tableEv(ptr noundef nonnull align 8 dereferenceable(36) %0) #7 comdat align 2 {
  %2 = alloca ptr, align 8
  store ptr %0, ptr %2, align 8, !tbaa !160
  %3 = load ptr, ptr %2, align 8
  %4 = getelementptr inbounds nuw %"class.datalog::relation_plugin", ptr %3, i32 0, i32 1
  %5 = load i32, ptr %4, align 8, !tbaa !202
  %6 = icmp eq i32 %5, 1
  ret i1 %6
}

; Function Attrs: mustprogress nounwind uwtable
define linkonce_odr hidden noundef nonnull align 8 dereferenceable(36) ptr @_ZNK7datalog17tr_infrastructureINS_15relation_traitsEE13base_ancestor10get_pluginEv(ptr noundef nonnull align 8 dereferenceable(28) %0) #7 comdat align 2 {
  %2 = alloca ptr, align 8
  store ptr %0, ptr %2, align 8, !tbaa !64
  %3 = load ptr, ptr %2, align 8
  %4 = getelementptr inbounds nuw %"class.datalog::tr_infrastructure<datalog::relation_traits>::base_ancestor", ptr %3, i32 0, i32 1
  %5 = load ptr, ptr %4, align 8, !tbaa !201
  ret ptr %5
}

; Function Attrs: mustprogress uwtable
define linkonce_odr hidden void @_ZN7datalog21table_relation_plugin25tr_intersection_filter_fnC2EPNS_17tr_infrastructureINS_12table_traitsEE22intersection_filter_fnE(ptr noundef nonnull align 8 dereferenceable(16) %0, ptr noundef %1) unnamed_addr #4 comdat align 2 personality ptr @__gxx_personality_v0 {
  %3 = alloca ptr, align 8
  %4 = alloca ptr, align 8
  %5 = alloca ptr, align 8
  %6 = alloca i32, align 4
  store ptr %0, ptr %3, align 8, !tbaa !96
  store ptr %1, ptr %4, align 8, !tbaa !94
  %7 = load ptr, ptr %3, align 8
  call void @_ZN7datalog17tr_infrastructureINS_15relation_traitsEE22intersection_filter_fnC2Ev(ptr noundef nonnull align 8 dereferenceable(8) %7) #3
  store ptr getelementptr inbounds inrange(-16, 24) ({ [5 x ptr] }, ptr @_ZTVN7datalog21table_relation_plugin25tr_intersection_filter_fnE, i32 0, i32 0, i32 2), ptr %7, align 8, !tbaa !34
  %8 = getelementptr inbounds nuw %"class.datalog::table_relation_plugin::tr_intersection_filter_fn", ptr %7, i32 0, i32 1
  %9 = load ptr, ptr %4, align 8, !tbaa !94
  invoke void @_ZN10scoped_ptrIN7datalog17tr_infrastructureINS0_12table_traitsEE22intersection_filter_fnEEC2EPS4_(ptr noundef nonnull align 8 dereferenceable(8) %8, ptr noundef %9)
          to label %10 unwind label %11

10:                                               ; preds = %2
  ret void

11:                                               ; preds = %2
  %12 = landingpad { ptr, i32 }
          cleanup
  %13 = extractvalue { ptr, i32 } %12, 0
  store ptr %13, ptr %5, align 8
  %14 = extractvalue { ptr, i32 } %12, 1
  store i32 %14, ptr %6, align 4
  call void @_ZN7datalog17tr_infrastructureINS_15relation_traitsEE7base_fnD2Ev(ptr noundef nonnull align 8 dereferenceable(8) %7) #3
  br label %15

15:                                               ; preds = %11
  %16 = load ptr, ptr %5, align 8
  %17 = load i32, ptr %6, align 4
  %18 = insertvalue { ptr, i32 } poison, ptr %16, 0
  %19 = insertvalue { ptr, i32 } %18, i32 %17, 1
  resume { ptr, i32 } %19
}

; Function Attrs: mustprogress uwtable
define linkonce_odr hidden noundef nonnull align 8 dereferenceable(36) ptr @_ZNK7datalog14table_relation9get_tableEv(ptr noundef nonnull align 8 dereferenceable(40) %0) #4 comdat align 2 {
  %2 = alloca ptr, align 8
  store ptr %0, ptr %2, align 8, !tbaa !49
  %3 = load ptr, ptr %2, align 8
  %4 = getelementptr inbounds nuw %"class.datalog::table_relation", ptr %3, i32 0, i32 1
  %5 = call noundef nonnull align 8 dereferenceable(36) ptr @_ZNK7datalog10scoped_relINS_10table_baseEEdeEv(ptr noundef nonnull align 8 dereferenceable(8) %4)
  ret ptr %5
}

; Function Attrs: mustprogress nounwind uwtable
define linkonce_odr hidden noundef nonnull align 8 dereferenceable(200) ptr @_ZNK7datalog17tr_infrastructureINS_15relation_traitsEE13plugin_object11get_managerEv(ptr noundef nonnull align 8 dereferenceable(32) %0) #7 comdat align 2 {
  %2 = alloca ptr, align 8
  store ptr %0, ptr %2, align 8, !tbaa !44
  %3 = load ptr, ptr %2, align 8
  %4 = getelementptr inbounds nuw %"class.datalog::tr_infrastructure<datalog::relation_traits>::plugin_object", ptr %3, i32 0, i32 3
  %5 = load ptr, ptr %4, align 8, !tbaa !46
  ret ptr %5
}

; Function Attrs: mustprogress uwtable
define linkonce_odr hidden noundef zeroext i1 @_ZNK7datalog13relation_base10from_tableEv(ptr noundef nonnull align 8 dereferenceable(28) %0) #4 comdat align 2 {
  %2 = alloca ptr, align 8
  store ptr %0, ptr %2, align 8, !tbaa !58
  %3 = load ptr, ptr %2, align 8
  %4 = call noundef nonnull align 8 dereferenceable(36) ptr @_ZNK7datalog17tr_infrastructureINS_15relation_traitsEE13base_ancestor10get_pluginEv(ptr noundef nonnull align 8 dereferenceable(28) %3)
  %5 = call noundef zeroext i1 @_ZNK7datalog15relation_plugin10from_tableEv(ptr noundef nonnull align 8 dereferenceable(36) %4)
  ret i1 %5
}

; Function Attrs: mustprogress uwtable
define hidden noundef ptr @_ZN7datalog21table_relation_plugin28mk_filter_by_intersection_fnERKNS_13relation_baseES3_jPKjS5_(ptr noundef nonnull align 8 dereferenceable(48) %0, ptr noundef nonnull align 8 dereferenceable(28) %1, ptr noundef nonnull align 8 dereferenceable(28) %2, i32 noundef %3, ptr noundef %4, ptr noundef %5) unnamed_addr #4 align 2 {
  %7 = alloca ptr, align 8
  %8 = alloca ptr, align 8
  %9 = alloca ptr, align 8
  %10 = alloca ptr, align 8
  %11 = alloca i32, align 4
  %12 = alloca ptr, align 8
  %13 = alloca ptr, align 8
  %14 = alloca ptr, align 8
  %15 = alloca ptr, align 8
  %16 = alloca ptr, align 8
  %17 = alloca i32, align 4
  store ptr %0, ptr %8, align 8, !tbaa !22
  store ptr %1, ptr %9, align 8, !tbaa !58
  store ptr %2, ptr %10, align 8, !tbaa !58
  store i32 %3, ptr %11, align 4, !tbaa !53
  store ptr %4, ptr %12, align 8, !tbaa !60
  store ptr %5, ptr %13, align 8, !tbaa !60
  %18 = load ptr, ptr %8, align 8
  %19 = load ptr, ptr %9, align 8, !tbaa !58
  %20 = call noundef zeroext i1 @_ZNK7datalog13relation_base10from_tableEv(ptr noundef nonnull align 8 dereferenceable(28) %19)
  br i1 %20, label %21, label %24

21:                                               ; preds = %6
  %22 = load ptr, ptr %10, align 8, !tbaa !58
  %23 = call noundef zeroext i1 @_ZNK7datalog13relation_base10from_tableEv(ptr noundef nonnull align 8 dereferenceable(28) %22)
  br i1 %23, label %25, label %24

24:                                               ; preds = %21, %6
  store ptr null, ptr %7, align 8
  br label %44

25:                                               ; preds = %21
  call void @llvm.lifetime.start.p0(i64 8, ptr %14) #3
  %26 = load ptr, ptr %9, align 8, !tbaa !58
  store ptr %26, ptr %14, align 8, !tbaa !49
  call void @llvm.lifetime.start.p0(i64 8, ptr %15) #3
  %27 = load ptr, ptr %10, align 8, !tbaa !58
  store ptr %27, ptr %15, align 8, !tbaa !49
  call void @llvm.lifetime.start.p0(i64 8, ptr %16) #3
  %28 = call noundef nonnull align 8 dereferenceable(200) ptr @_ZNK7datalog17tr_infrastructureINS_15relation_traitsEE13plugin_object11get_managerEv(ptr noundef nonnull align 8 dereferenceable(32) %18)
  %29 = load ptr, ptr %14, align 8, !tbaa !49
  %30 = call noundef nonnull align 8 dereferenceable(36) ptr @_ZNK7datalog14table_relation9get_tableEv(ptr noundef nonnull align 8 dereferenceable(40) %29)
  %31 = load ptr, ptr %15, align 8, !tbaa !49
  %32 = call noundef nonnull align 8 dereferenceable(36) ptr @_ZNK7datalog14table_relation9get_tableEv(ptr noundef nonnull align 8 dereferenceable(40) %31)
  %33 = load i32, ptr %11, align 4, !tbaa !53
  %34 = load ptr, ptr %12, align 8, !tbaa !60
  %35 = load ptr, ptr %13, align 8, !tbaa !60
  %36 = call noundef ptr @_ZN7datalog16relation_manager28mk_filter_by_intersection_fnERKNS_10table_baseES3_jPKjS5_(ptr noundef nonnull align 8 dereferenceable(200) %28, ptr noundef nonnull align 8 dereferenceable(36) %30, ptr noundef nonnull align 8 dereferenceable(36) %32, i32 noundef %33, ptr noundef %34, ptr noundef %35)
  store ptr %36, ptr %16, align 8, !tbaa !94
  %37 = load ptr, ptr %16, align 8, !tbaa !94
  %38 = icmp ne ptr %37, null
  br i1 %38, label %40, label %39

39:                                               ; preds = %25
  store ptr null, ptr %7, align 8
  store i32 1, ptr %17, align 4
  br label %43

40:                                               ; preds = %25
  %41 = call noalias noundef ptr @_ZN6memory8allocateEm(i64 noundef 16)
  %42 = load ptr, ptr %16, align 8, !tbaa !94
  call void @_ZN7datalog21table_relation_plugin25tr_intersection_filter_fnC2EPNS_17tr_infrastructureINS_12table_traitsEE22intersection_filter_fnE(ptr noundef nonnull align 8 dereferenceable(16) %41, ptr noundef %42)
  store ptr %41, ptr %7, align 8
  store i32 1, ptr %17, align 4
  br label %43

43:                                               ; preds = %40, %39
  call void @llvm.lifetime.end.p0(i64 8, ptr %16) #3
  call void @llvm.lifetime.end.p0(i64 8, ptr %15) #3
  call void @llvm.lifetime.end.p0(i64 8, ptr %14) #3
  br label %44

44:                                               ; preds = %43, %24
  %45 = load ptr, ptr %7, align 8
  ret ptr %45
}